; Function Attrs: mustprogress nounwind uwtable
define internal void @_ZZN8facebook6hermes7tracing12_GLOBAL__N_110bufConvertESt10unique_ptrIN4llvh12MemoryBufferESt14default_deleteIS5_EEEN17OwnedMemoryBufferD0Ev(ptr noundef nonnull align 8 dereferenceable(16) %this) unnamed_addr #5 align 2 personality ptr @__gxx_personality_v0 {
entry:
  store ptr getelementptr inbounds ({ [6 x ptr] }, ptr @_ZTVZN8facebook6hermes7tracing12_GLOBAL__N_110bufConvertESt10unique_ptrIN4llvh12MemoryBufferESt14default_deleteIS5_EEE17OwnedMemoryBuffer, i64 0, i32 0, i64 2), ptr %this, align 8
  %data_.i = getelementptr inbounds i8, ptr %this, i64 8
  %0 = load ptr, ptr %data_.i, align 8
  %cmp.not.i.i = icmp eq ptr %0, null
  br i1 %cmp.not.i.i, label %_ZZN8facebook6hermes7tracing12_GLOBAL__N_110bufConvertESt10unique_ptrIN4llvh12MemoryBufferESt14default_deleteIS5_EEEN17OwnedMemoryBufferD2Ev.exit, label %_ZNKSt14default_deleteIN4llvh12MemoryBufferEEclEPS1_.exit.i.i

_ZNKSt14default_deleteIN4llvh12MemoryBufferEEclEPS1_.exit.i.i: ; preds = %entry
  %vtable.i.i.i = load ptr, ptr %0, align 8
  %vfn.i.i.i = getelementptr inbounds i8, ptr %vtable.i.i.i, i64 8
  %1 = load ptr, ptr %vfn.i.i.i, align 8
  tail call void %1(ptr noundef nonnull align 8 dereferenceable(24) %0) #29
  br label %_ZZN8facebook6hermes7tracing12_GLOBAL__N_110bufConvertESt10unique_ptrIN4llvh12MemoryBufferESt14default_deleteIS5_EEEN17OwnedMemoryBufferD2Ev.exit

_ZZN8facebook6hermes7tracing12_GLOBAL__N_110bufConvertESt10unique_ptrIN4llvh12MemoryBufferESt14default_deleteIS5_EEEN17OwnedMemoryBufferD2Ev.exit: ; preds = %entry, %_ZNKSt14default_deleteIN4llvh12MemoryBufferEEclEPS1_.exit.i.i
  store ptr null, ptr %data_.i, align 8
  tail call void @_ZN8facebook3jsi6BufferD2Ev(ptr noundef nonnull align 8 dereferenceable(8) %this) #29
  tail call void @_ZdlPv(ptr noundef nonnull %this) #31
  ret void
}